target datalayout = "e-m:e-p270:32:32-p271:32:32-p272:64:64-i64:64-i128:128-f80:128-n8:16:32:64-S128"
target triple = "x86_64-pc-linux-gnu"

%struct.SDL_AtomicInt = type { i32 }
%struct.SDL_TemporaryMemory = type { ptr, ptr, ptr }
%struct.SDL_TemporaryMemoryState = type { ptr, ptr }

@SDL_temporary_memory = internal global %struct.SDL_AtomicInt zeroinitializer, align 4

; Function Attrs: nounwind uwtable
define internal void @SDL_LinkTemporaryMemoryEntry(ptr noundef %0, ptr noundef %1) #0 {
  %3 = alloca ptr, align 8
  %4 = alloca ptr, align 8
  store ptr %0, ptr %3, align 8
  store ptr %1, ptr %4, align 8
  %5 = load ptr, ptr %3, align 8
  %6 = getelementptr inbounds nuw %struct.SDL_TemporaryMemoryState, ptr %5, i32 0, i32 1
  %7 = load ptr, ptr %6, align 8
  %8 = load ptr, ptr %4, align 8
  %9 = getelementptr inbounds nuw %struct.SDL_TemporaryMemory, ptr %8, i32 0, i32 1
  store ptr %7, ptr %9, align 8
  %10 = load ptr, ptr %4, align 8
  %11 = getelementptr inbounds nuw %struct.SDL_TemporaryMemory, ptr %10, i32 0, i32 2
  store ptr null, ptr %11, align 8
  %12 = load ptr, ptr %3, align 8
  %13 = getelementptr inbounds nuw %struct.SDL_TemporaryMemoryState, ptr %12, i32 0, i32 1
  %14 = load ptr, ptr %13, align 8
  %15 = icmp ne ptr %14, null
  br i1 %15, label %16, label %22

16:                                               ; preds = %2
  %17 = load ptr, ptr %4, align 8
  %18 = load ptr, ptr %3, align 8
  %19 = getelementptr inbounds nuw %struct.SDL_TemporaryMemoryState, ptr %18, i32 0, i32 1
  %20 = load ptr, ptr %19, align 8
  %21 = getelementptr inbounds nuw %struct.SDL_TemporaryMemory, ptr %20, i32 0, i32 2
  store ptr %17, ptr %21, align 8
  br label %26

22:                                               ; preds = %2
  %23 = load ptr, ptr %4, align 8
  %24 = load ptr, ptr %3, align 8
  %25 = getelementptr inbounds nuw %struct.SDL_TemporaryMemoryState, ptr %24, i32 0, i32 0
  store ptr %23, ptr %25, align 8
  br label %26

26:                                               ; preds = %22, %16
  %27 = load ptr, ptr %4, align 8
  %28 = load ptr, ptr %3, align 8
  %29 = getelementptr inbounds nuw %struct.SDL_TemporaryMemoryState, ptr %28, i32 0, i32 1
  store ptr %27, ptr %29, align 8
  ret void
}

; Function Attrs: nounwind uwtable
define internal ptr @SDL_GetTemporaryMemoryState(i1 noundef zeroext %0) #0 {
  %2 = alloca ptr, align 8
  %3 = alloca i8, align 1
  %4 = alloca ptr, align 8
  %5 = alloca i32, align 4
  %6 = zext i1 %0 to i8
  store i8 %6, ptr %3, align 1
  call void @llvm.lifetime.start.p0(i64 8, ptr %4) #5
  %7 = call ptr @SDL_GetTLS_REAL(ptr noundef @SDL_temporary_memory)
  store ptr %7, ptr %4, align 8
  %8 = load ptr, ptr %4, align 8
  %9 = icmp ne ptr %8, null
  br i1 %9, label %25, label %10

10:                                               ; preds = %1
  %11 = load i8, ptr %3, align 1, !range !3, !noundef !4
  %12 = trunc i8 %11 to i1
  br i1 %12, label %14, label %13

13:                                               ; preds = %10
  store ptr null, ptr %2, align 8
  store i32 1, ptr %5, align 4
  br label %27

14:                                               ; preds = %10
  %15 = call noalias ptr @SDL_calloc_REAL(i64 noundef 1, i64 noundef 16) #6
  store ptr %15, ptr %4, align 8
  %16 = load ptr, ptr %4, align 8
  %17 = icmp ne ptr %16, null
  br i1 %17, label %19, label %18

18:                                               ; preds = %14
  store ptr null, ptr %2, align 8
  store i32 1, ptr %5, align 4
  br label %27

19:                                               ; preds = %14
  %20 = load ptr, ptr %4, align 8
  %21 = call zeroext i1 @SDL_SetTLS_REAL(ptr noundef @SDL_temporary_memory, ptr noundef %20, ptr noundef @SDL_CleanupTemporaryMemory)
  br i1 %21, label %24, label %22

22:                                               ; preds = %19
  %23 = load ptr, ptr %4, align 8
  call void @SDL_free_REAL(ptr noundef %23)
  store ptr null, ptr %2, align 8
  store i32 1, ptr %5, align 4
  br label %27

24:                                               ; preds = %19
  br label %25

25:                                               ; preds = %24, %1
  %26 = load ptr, ptr %4, align 8
  store ptr %26, ptr %2, align 8
  store i32 1, ptr %5, align 4
  br label %27

27:                                               ; preds = %25, %22, %18, %13
  call void @llvm.lifetime.end.p0(i64 8, ptr %4) #5
  %28 = load ptr, ptr %2, align 8
  ret ptr %28
}

; Function Attrs: nounwind uwtable
define internal ptr @SDL_FreeLater(ptr noundef %0) #0 {
  %2 = alloca ptr, align 8
  %3 = alloca ptr, align 8
  %4 = alloca ptr, align 8
  %5 = alloca i32, align 4
  %6 = alloca ptr, align 8
  store ptr %0, ptr %3, align 8
  call void @llvm.lifetime.start.p0(i64 8, ptr %4) #5
  %7 = load ptr, ptr %3, align 8
  %8 = icmp eq ptr %7, null
  br i1 %8, label %9, label %10

9:                                                ; preds = %1
  store ptr null, ptr %2, align 8
  store i32 1, ptr %5, align 4
  br label %30

10:                                               ; preds = %1
  %11 = call ptr @SDL_GetTemporaryMemoryState(i1 noundef zeroext true)
  store ptr %11, ptr %4, align 8
  %12 = load ptr, ptr %4, align 8
  %13 = icmp ne ptr %12, null
  br i1 %13, label %16, label %14

14:                                               ; preds = %10
  %15 = load ptr, ptr %3, align 8
  store ptr %15, ptr %2, align 8
  store i32 1, ptr %5, align 4
  br label %30

16:                                               ; preds = %10
  call void @llvm.lifetime.start.p0(i64 8, ptr %6) #5
  %17 = call noalias ptr @SDL_malloc_REAL(i64 noundef 24)
  store ptr %17, ptr %6, align 8
  %18 = load ptr, ptr %6, align 8
  %19 = icmp ne ptr %18, null
  br i1 %19, label %22, label %20

20:                                               ; preds = %16
  %21 = load ptr, ptr %3, align 8
  store ptr %21, ptr %2, align 8
  store i32 1, ptr %5, align 4
  br label %29

22:                                               ; preds = %16
  %23 = load ptr, ptr %3, align 8
  %24 = load ptr, ptr %6, align 8
  %25 = getelementptr inbounds nuw %struct.SDL_TemporaryMemory, ptr %24, i32 0, i32 0
  store ptr %23, ptr %25, align 8
  %26 = load ptr, ptr %4, align 8
  %27 = load ptr, ptr %6, align 8
  call void @SDL_LinkTemporaryMemoryEntry(ptr noundef %26, ptr noundef %27)
  %28 = load ptr, ptr %3, align 8
  store ptr %28, ptr %2, align 8
  store i32 1, ptr %5, align 4
  br label %29

29:                                               ; preds = %22, %20
  call void @llvm.lifetime.end.p0(i64 8, ptr %6) #5
  br label %30

30:                                               ; preds = %29, %14, %9
  call void @llvm.lifetime.end.p0(i64 8, ptr %4) #5
  %31 = load ptr, ptr %2, align 8
  ret ptr %31
}

; Function Attrs: nounwind uwtable
define hidden ptr @SDL_CreateTemporaryString(ptr noundef %0) #0 {
  %2 = alloca ptr, align 8
  %3 = alloca ptr, align 8
  store ptr %0, ptr %3, align 8
  %4 = load ptr, ptr %3, align 8
  %5 = icmp ne ptr %4, null
  br i1 %5, label %6, label %10

6:                                                ; preds = %1
  %7 = load ptr, ptr %3, align 8
  %8 = call noalias ptr @SDL_strdup_REAL(ptr noundef %7)
  %9 = call ptr @SDL_FreeLater(ptr noundef %8)
  store ptr %9, ptr %2, align 8
  br label %11

10:                                               ; preds = %1
  store ptr null, ptr %2, align 8
  br label %11

11:                                               ; preds = %10, %6
  %12 = load ptr, ptr %2, align 8
  ret ptr %12
}