; Function Attrs: nounwind uwtable
define hidden ptr @SDL_CreateTemporaryString(ptr noundef %0) local_unnamed_addr #0 {
  %.not = icmp eq ptr %0, null
  br i1 %.not, label %SDL_FreeLater.exit, label %2

2:                                                ; preds = %1
  %3 = tail call noalias ptr @SDL_strdup_REAL(ptr noundef nonnull %0) #8
  %4 = icmp eq ptr %3, null
  br i1 %4, label %SDL_FreeLater.exit, label %5

5:                                                ; preds = %2
  %6 = tail call ptr @SDL_GetTLS_REAL(ptr noundef nonnull @SDL_temporary_memory) #8
  %.not.i.i = icmp eq ptr %6, null
  br i1 %.not.i.i, label %7, label %SDL_GetTemporaryMemoryState.exit.i

7:                                                ; preds = %5
  %8 = tail call noalias dereferenceable_or_null(16) ptr @SDL_calloc_REAL(i64 noundef 1, i64 noundef 16) #9
  %.not9.i.i = icmp eq ptr %8, null
  br i1 %.not9.i.i, label %SDL_FreeLater.exit, label %9

9:                                                ; preds = %7
  %10 = tail call zeroext i1 @SDL_SetTLS_REAL(ptr noundef nonnull @SDL_temporary_memory, ptr noundef nonnull %8, ptr noundef nonnull @SDL_CleanupTemporaryMemory) #8
  br i1 %10, label %SDL_GetTemporaryMemoryState.exit.i, label %11

11:                                               ; preds = %9
  tail call void @SDL_free_REAL(ptr noundef nonnull %8) #8
  br label %SDL_FreeLater.exit

SDL_GetTemporaryMemoryState.exit.i:               ; preds = %9, %5
  %.06.i.i = phi ptr [ %6, %5 ], [ %8, %9 ]
  %12 = tail call noalias ptr @SDL_malloc_REAL(i64 noundef 24) #8
  %.not14.i = icmp eq ptr %12, null
  br i1 %.not14.i, label %SDL_FreeLater.exit, label %13

13:                                               ; preds = %SDL_GetTemporaryMemoryState.exit.i
  store ptr %3, ptr %12, align 8
  %14 = getelementptr inbounds nuw i8, ptr %.06.i.i, i64 8
  %15 = load ptr, ptr %14, align 8
  %16 = getelementptr inbounds nuw i8, ptr %12, i64 8
  store ptr %15, ptr %16, align 8
  %17 = getelementptr inbounds nuw i8, ptr %12, i64 16
  store ptr null, ptr %17, align 8
  %.not.i15.i = icmp eq ptr %15, null
  br i1 %.not.i15.i, label %20, label %18

18:                                               ; preds = %13
  %19 = getelementptr inbounds nuw i8, ptr %15, i64 16
  store ptr %12, ptr %19, align 8
  br label %SDL_LinkTemporaryMemoryEntry.exit.i

20:                                               ; preds = %13
  store ptr %12, ptr %.06.i.i, align 8
  br label %SDL_LinkTemporaryMemoryEntry.exit.i

SDL_LinkTemporaryMemoryEntry.exit.i:              ; preds = %20, %18
  store ptr %12, ptr %14, align 8
  br label %SDL_FreeLater.exit

SDL_FreeLater.exit:                               ; preds = %SDL_LinkTemporaryMemoryEntry.exit.i, %SDL_GetTemporaryMemoryState.exit.i, %11, %7, %2, %1
  %.0 = phi ptr [ null, %1 ], [ null, %2 ], [ %3, %7 ], [ %3, %11 ], [ %3, %SDL_GetTemporaryMemoryState.exit.i ], [ %3, %SDL_LinkTemporaryMemoryEntry.exit.i ]
  ret ptr %.0
}